; Function Attrs: mustprogress nounwind uwtable
define hidden noundef zeroext i1 @_ZN12JvmtiEnvBase28is_cthread_with_continuationEP10JavaThread(ptr noundef %0) local_unnamed_addr #0 align 2 {
  %2 = getelementptr inbounds i8, ptr %0, i64 928
  %3 = load volatile ptr, ptr %2, align 8
  %.not = icmp eq ptr %3, null
  br i1 %.not, label %.critedge, label %4

4:                                                ; preds = %1
  %5 = getelementptr inbounds i8, ptr %0, i64 1336
  %.08.i = load ptr, ptr %5, align 8
  %.not9.i = icmp eq ptr %.08.i, null
  br i1 %.not9.i, label %.critedge, label %.lr.ph.i

.lr.ph.i:                                         ; preds = %4, %8
  %.010.i = phi ptr [ %.0.i, %8 ], [ %.08.i, %4 ]
  %6 = getelementptr inbounds i8, ptr %.010.i, i64 32
  %7 = load i32, ptr %6, align 8
  %.not7.i = icmp eq i32 %7, 0
  br i1 %.not7.i, label %8, label %_ZNK10JavaThread20vthread_continuationEv.exit

8:                                                ; preds = %.lr.ph.i
  %9 = getelementptr inbounds i8, ptr %.010.i, i64 8
  %.0.i = load ptr, ptr %9, align 8
  %.not.i = icmp eq ptr %.0.i, null
  br i1 %.not.i, label %.critedge, label %.lr.ph.i, !llvm.loop !27

_ZNK10JavaThread20vthread_continuationEv.exit:    ; preds = %.lr.ph.i
  %10 = tail call noundef ptr @_ZNK10JavaThread9threadObjEv(ptr noundef nonnull align 8 dereferenceable(1800) %0) #18
  %11 = tail call noundef ptr @_ZNK10JavaThread13jvmti_vthreadEv(ptr noundef nonnull align 8 dereferenceable(1800) %0) #18
  %12 = icmp ne ptr %11, null
  %13 = icmp ne ptr %11, %10
  %14 = and i1 %12, %13
  br label %.critedge

.critedge:                                        ; preds = %8, %4, %1, %_ZNK10JavaThread20vthread_continuationEv.exit
  %15 = phi i1 [ %14, %_ZNK10JavaThread20vthread_continuationEv.exit ], [ false, %1 ], [ false, %4 ], [ false, %8 ]
  ret i1 %15
}